; Function Attrs: nounwind uwtable
define range(i32 -1, 3) i32 @wolfSSL_shutdown(ptr noundef %0) local_unnamed_addr #0 {
  %2 = icmp eq ptr %0, null
  br i1 %2, label %31, label %3

3:                                                ; preds = %1
  %4 = getelementptr inbounds nuw i8, ptr %0, i64 1024
  %5 = load i64, ptr %4, align 8
  %6 = and i64 %5, 34359738368
  %.not = icmp eq i64 %6, 0
  br i1 %.not, label %7, label %31

7:                                                ; preds = %3
  %8 = and i64 %5, 2883584
  %or.cond33 = icmp eq i64 %8, 0
  br i1 %or.cond33, label %9, label %19

9:                                                ; preds = %7
  %10 = tail call i32 @SendAlert(ptr noundef nonnull %0, i32 noundef 1, i32 noundef 0) #22
  %11 = getelementptr inbounds nuw i8, ptr %0, i64 664
  store i32 %10, ptr %11, align 8, !tbaa !130
  %12 = icmp slt i32 %10, 0
  br i1 %12, label %31, label %13

13:                                               ; preds = %9
  %14 = load i64, ptr %4, align 8
  %15 = or i64 %14, 2097152
  store i64 %15, ptr %4, align 8
  %16 = and i64 %14, 1048576
  %.not29 = icmp eq i64 %16, 0
  br i1 %.not29, label %31, label %17

17:                                               ; preds = %13
  %18 = getelementptr inbounds nuw i8, ptr %0, i64 1034
  store i8 1, ptr %18, align 2, !tbaa !171
  br label %19

19:                                               ; preds = %17, %7
  %20 = phi i64 [ %5, %7 ], [ %15, %17 ]
  %.0 = phi i32 [ -1, %7 ], [ 1, %17 ]
  %21 = and i64 %20, 3145728
  %or.cond34 = icmp eq i64 %21, 2097152
  br i1 %or.cond34, label %22, label %31

22:                                               ; preds = %19
  %23 = tail call i32 @ProcessReply(ptr noundef nonnull %0) #22
  switch i32 %23, label %27 [
    i32 -308, label %24
    i32 -343, label %24
    i32 -125, label %31
  ]

24:                                               ; preds = %22, %22
  %25 = getelementptr inbounds nuw i8, ptr %0, i64 1034
  store i8 1, ptr %25, align 2, !tbaa !171
  %26 = getelementptr inbounds nuw i8, ptr %0, i64 664
  store i32 0, ptr %26, align 8, !tbaa !130
  br label %31

27:                                               ; preds = %22
  %28 = getelementptr inbounds nuw i8, ptr %0, i64 664
  %29 = load i32, ptr %28, align 8, !tbaa !130
  %30 = icmp eq i32 %29, 0
  %. = select i1 %30, i32 2, i32 -1
  br label %31

31:                                               ; preds = %19, %24, %3, %22, %27, %13, %9, %1
  %.023 = phi i32 [ -1, %1 ], [ -1, %9 ], [ 2, %13 ], [ 1, %24 ], [ %.0, %19 ], [ 1, %3 ], [ -1, %22 ], [ %., %27 ]
  ret i32 %.023
}